target datalayout = "e-m:e-p270:32:32-p271:32:32-p272:64:64-i64:64-i128:128-f80:128-n8:16:32:64-S128"
target triple = "x86_64-pc-linux-gnu"

%struct.mbedtls_ecp_group = type { i32, %struct.mbedtls_mpi, %struct.mbedtls_mpi, %struct.mbedtls_mpi, %struct.mbedtls_ecp_point, %struct.mbedtls_mpi, i64, i64, i32, ptr, ptr, ptr, ptr, ptr, i64 }
%struct.mbedtls_ecp_point = type { %struct.mbedtls_mpi, %struct.mbedtls_mpi, %struct.mbedtls_mpi }
%struct.mbedtls_mpi = type { ptr, i16, i16 }

; Function Attrs: nounwind uwtable
define internal i32 @ecdh_gen_public_restartable(ptr noundef %0, ptr noundef %1, ptr noundef %2, ptr noundef %3, ptr noundef %4, ptr noundef %5) #0 {
  %7 = alloca ptr, align 8
  %8 = alloca ptr, align 8
  %9 = alloca ptr, align 8
  %10 = alloca ptr, align 8
  %11 = alloca ptr, align 8
  %12 = alloca ptr, align 8
  %13 = alloca i32, align 4
  %14 = alloca i32, align 4
  store ptr %0, ptr %7, align 8, !tbaa !7
  store ptr %1, ptr %8, align 8, !tbaa !10
  store ptr %2, ptr %9, align 8, !tbaa !12
  store ptr %3, ptr %10, align 8, !tbaa !14
  store ptr %4, ptr %11, align 8, !tbaa !14
  store ptr %5, ptr %12, align 8, !tbaa !14
  call void @llvm.lifetime.start.p0(i64 4, ptr %13) #4
  store i32 -110, ptr %13, align 4, !tbaa !3
  call void @llvm.lifetime.start.p0(i64 4, ptr %14) #4
  store i32 0, ptr %14, align 4, !tbaa !3
  %15 = load i32, ptr %14, align 4, !tbaa !3
  %16 = icmp ne i32 %15, 0
  br i1 %16, label %29, label %17

17:                                               ; preds = %6
  br label %18

18:                                               ; preds = %17
  %19 = load ptr, ptr %7, align 8, !tbaa !7
  %20 = load ptr, ptr %8, align 8, !tbaa !10
  %21 = load ptr, ptr %10, align 8, !tbaa !14
  %22 = load ptr, ptr %11, align 8, !tbaa !14
  %23 = call i32 @mbedtls_ecp_gen_privkey(ptr noundef %19, ptr noundef %20, ptr noundef %21, ptr noundef %22)
  store i32 %23, ptr %13, align 4, !tbaa !3
  %24 = icmp ne i32 %23, 0
  br i1 %24, label %25, label %26

25:                                               ; preds = %18
  br label %45

26:                                               ; preds = %18
  br label %27

27:                                               ; preds = %26
  br label %28

28:                                               ; preds = %27
  br label %29

29:                                               ; preds = %28, %6
  br label %30

30:                                               ; preds = %29
  %31 = load ptr, ptr %7, align 8, !tbaa !7
  %32 = load ptr, ptr %9, align 8, !tbaa !12
  %33 = load ptr, ptr %8, align 8, !tbaa !10
  %34 = load ptr, ptr %7, align 8, !tbaa !7
  %35 = getelementptr inbounds nuw %struct.mbedtls_ecp_group, ptr %34, i32 0, i32 4
  %36 = load ptr, ptr %10, align 8, !tbaa !14
  %37 = load ptr, ptr %11, align 8, !tbaa !14
  %38 = load ptr, ptr %12, align 8, !tbaa !14
  %39 = call i32 @mbedtls_ecp_mul_restartable(ptr noundef %31, ptr noundef %32, ptr noundef %33, ptr noundef %35, ptr noundef %36, ptr noundef %37, ptr noundef %38)
  store i32 %39, ptr %13, align 4, !tbaa !3
  %40 = icmp ne i32 %39, 0
  br i1 %40, label %41, label %42

41:                                               ; preds = %30
  br label %45

42:                                               ; preds = %30
  br label %43

43:                                               ; preds = %42
  br label %44

44:                                               ; preds = %43
  br label %45

45:                                               ; preds = %44, %41, %25
  %46 = load i32, ptr %13, align 4, !tbaa !3
  call void @llvm.lifetime.end.p0(i64 4, ptr %14) #4
  call void @llvm.lifetime.end.p0(i64 4, ptr %13) #4
  ret i32 %46
}

; Function Attrs: nounwind uwtable
define hidden i32 @mbedtls_ecdh_gen_public(ptr noundef %0, ptr noundef %1, ptr noundef %2, ptr noundef %3, ptr noundef %4) #0 {
  %6 = alloca ptr, align 8
  %7 = alloca ptr, align 8
  %8 = alloca ptr, align 8
  %9 = alloca ptr, align 8
  %10 = alloca ptr, align 8
  store ptr %0, ptr %6, align 8, !tbaa !7
  store ptr %1, ptr %7, align 8, !tbaa !10
  store ptr %2, ptr %8, align 8, !tbaa !12
  store ptr %3, ptr %9, align 8, !tbaa !14
  store ptr %4, ptr %10, align 8, !tbaa !14
  %11 = load ptr, ptr %6, align 8, !tbaa !7
  %12 = load ptr, ptr %7, align 8, !tbaa !10
  %13 = load ptr, ptr %8, align 8, !tbaa !12
  %14 = load ptr, ptr %9, align 8, !tbaa !14
  %15 = load ptr, ptr %10, align 8, !tbaa !14
  %16 = call i32 @ecdh_gen_public_restartable(ptr noundef %11, ptr noundef %12, ptr noundef %13, ptr noundef %14, ptr noundef %15, ptr noundef null)
  ret i32 %16
}