; Function Attrs: nounwind uwtable
define hidden i32 @mbedtls_ecdh_gen_public(ptr noundef %0, ptr noundef %1, ptr noundef %2, ptr noundef %3, ptr noundef %4) local_unnamed_addr #1 {
  %6 = tail call i32 @mbedtls_ecp_gen_privkey(ptr noundef %0, ptr noundef %1, ptr noundef %3, ptr noundef %4) #7
  %.not.i = icmp eq i32 %6, 0
  br i1 %.not.i, label %7, label %ecdh_gen_public_restartable.exit

7:                                                ; preds = %5
  %8 = getelementptr inbounds nuw i8, ptr %0, i64 56
  %9 = tail call i32 @mbedtls_ecp_mul_restartable(ptr noundef %0, ptr noundef %2, ptr noundef %1, ptr noundef nonnull %8, ptr noundef %3, ptr noundef %4, ptr noundef null) #7
  br label %ecdh_gen_public_restartable.exit

ecdh_gen_public_restartable.exit:                 ; preds = %5, %7
  %.0.i = phi i32 [ %9, %7 ], [ %6, %5 ]
  ret i32 %.0.i
}